; Function Attrs: nounwind uwtable
define dso_local noundef ptr @CreateIncrementalBackupInfo(ptr noundef %0) local_unnamed_addr #0 {
  %2 = load ptr, ptr @CurrentMemoryContext, align 8
  store ptr %0, ptr @CurrentMemoryContext, align 8
  %3 = tail call ptr @palloc0(i64 noundef 64) #14
  store ptr %0, ptr %3, align 8
  %4 = getelementptr inbounds nuw i8, ptr %3, i64 8
  tail call void @initStringInfo(ptr noundef nonnull %4) #14
  %5 = tail call ptr @MemoryContextAllocZero(ptr noundef %0, i64 noundef 48) #14
  %6 = getelementptr inbounds nuw i8, ptr %5, i64 32
  store ptr %0, ptr %6, align 8
  %7 = getelementptr inbounds nuw i8, ptr %5, i64 40
  store ptr null, ptr %7, align 8
  %8 = tail call ptr @MemoryContextAllocExtended(ptr noundef %0, i64 noundef 393216, i32 noundef 5) #14
  %9 = getelementptr inbounds nuw i8, ptr %5, i64 24
  store ptr %8, ptr %9, align 8
  store i64 16384, ptr %5, align 8
  %10 = getelementptr inbounds nuw i8, ptr %5, i64 12
  store i32 16383, ptr %10, align 4
  %11 = getelementptr inbounds nuw i8, ptr %5, i64 16
  store i32 14745, ptr %11, align 8
  %12 = getelementptr inbounds nuw i8, ptr %3, i64 40
  store ptr %5, ptr %12, align 8
  %13 = tail call ptr @palloc0(i64 noundef 48) #14
  store ptr %3, ptr %13, align 8
  %14 = getelementptr inbounds nuw i8, ptr %13, i64 8
  store ptr @manifest_process_version, ptr %14, align 8
  %15 = getelementptr inbounds nuw i8, ptr %13, i64 16
  store ptr @manifest_process_system_identifier, ptr %15, align 8
  %16 = getelementptr inbounds nuw i8, ptr %13, i64 24
  store ptr @manifest_process_file, ptr %16, align 8
  %17 = getelementptr inbounds nuw i8, ptr %13, i64 32
  store ptr @manifest_process_wal_range, ptr %17, align 8
  %18 = getelementptr inbounds nuw i8, ptr %13, i64 40
  store ptr @manifest_report_error, ptr %18, align 8
  %19 = tail call ptr @json_parse_manifest_incremental_init(ptr noundef nonnull %13) #14
  %20 = getelementptr inbounds nuw i8, ptr %3, i64 56
  store ptr %19, ptr %20, align 8
  store ptr %2, ptr @CurrentMemoryContext, align 8
  ret ptr %3
}